(lp0
cnumpy.core.multiarray
scalar
p1
(cnumpy
dtype
p2
(S'f4'
p3
I0
I1
tp4
Rp5
(I3
S'<'
p6
NNNI-1
I-1
I0
tp7
bS'\xb1\x0f\x0f@'
p8
tp9
Rp10
ag1
(g5
S'\x9e\xa8\xb9?'
p11
tp12
Rp13
ag1
(g5
S'\x89\x7fd?'
p14
tp15
Rp16
ag1
(g5
S'\x98j\x00?'
p17
tp18
Rp19
ag1
(g5
S'\x88\x83\x91>'
p20
tp21
Rp22
ag1
(g5
S'q\r7>'
p23
tp24
Rp25
ag1
(g5
S'\x99\xc0\x04>'
p26
tp27
Rp28
ag1
(g5
S'\x1c\xfe\xed='
p29
tp30
Rp31
ag1
(g5
S'\x85-\xec='
p32
tp33
Rp34
ag1
(g5
S'\xce5\xeb='
p35
tp36
Rp37
ag1
(g5
S'\xbb\t\xec='
p38
tp39
Rp40
ag1
(g5
S'\xd2C\xee='
p41
tp42
Rp43
ag1
(g5
S'\x0e\x9f\xed='
p44
tp45
Rp46
ag1
(g5
S'\xd4\xb1\xf0='
p47
tp48
Rp49
ag1
(g5
S'7\x9c\xf4='
p50
tp51
Rp52
ag1
(g5
S'\x99\x1e\xf4='
p53
tp54
Rp55
ag1
(g5
S'\xfb\xac\xe9='
p56
tp57
Rp58
ag1
(g5
S'\x89\xa4\xf0='
p59
tp60
Rp61
ag1
(g5
S'\xc4.\xec='
p62
tp63
Rp64
ag1
(g5
S'\x0cQ\xf1='
p65
tp66
Rp67
ag1
(g5
S'\x9b:\xe5='
p68
tp69
Rp70
ag1
(g5
S'<\xc4\xeb='
p71
tp72
Rp73
ag1
(g5
S'B\x1c\xee='
p74
tp75
Rp76
ag1
(g5
S'\xa4\x1a\xf2='
p77
tp78
Rp79
ag1
(g5
S'\x95H\xe9='
p80
tp81
Rp82
ag1
(g5
S'\xb5\xd2\xe7='
p83
tp84
Rp85
ag1
(g5
S'kl\xef='
p86
tp87
Rp88
ag1
(g5
S'\x92&\xe7='
p89
tp90
Rp91
ag1
(g5
S'\xcb\xf1\xe9='
p92
tp93
Rp94
ag1
(g5
S'\xf9\xe4\xeb='
p95
tp96
Rp97
ag1
(g5
S'\xc2\xd9\xef='
p98
tp99
Rp100
ag1
(g5
S'\xeeu\xe7='
p101
tp102
Rp103
ag1
(g5
S'\x90L\xed='
p104
tp105
Rp106
ag1
(g5
S'\xdc\xd8\xeb='
p107
tp108
Rp109
ag1
(g5
S'\x19|\xf7='
p110
tp111
Rp112
ag1
(g5
S'\x00g\xe8='
p113
tp114
Rp115
ag1
(g5
S'\xdb;\xe9='
p116
tp117
Rp118
ag1
(g5
S'\xd2\xf2\xeb='
p119
tp120
Rp121
ag1
(g5
S'\xb9\x16\xe6='
p122
tp123
Rp124
ag1
(g5
S'\xd6\x8b\xe1='
p125
tp126
Rp127
ag1
(g5
S'\xa4q\xe6='
p128
tp129
Rp130
ag1
(g5
S'\xb2\xc2\xe5='
p131
tp132
Rp133
ag1
(g5
S'\xf4\x1d\xe4='
p134
tp135
Rp136
ag1
(g5
S'\x0c\xfb\xec='
p137
tp138
Rp139
ag1
(g5
S'\xe0v\xec='
p140
tp141
Rp142
ag1
(g5
S'>S\xe4='
p143
tp144
Rp145
ag1
(g5
S'0\x85\xed='
p146
tp147
Rp148
ag1
(g5
S'\x9a\xd9\xe1='
p149
tp150
Rp151
ag1
(g5
S'\xf2\xad\xe6='
p152
tp153
Rp154
ag1
(g5
S'\x17\x10\xe8='
p155
tp156
Rp157
ag1
(g5
S'\x17\xa6\xea='
p158
tp159
Rp160
ag1
(g5
S'Y\xcd\xe2='
p161
tp162
Rp163
ag1
(g5
S'B6\xe8='
p164
tp165
Rp166
ag1
(g5
S'd\x1c\xec='
p167
tp168
Rp169
ag1
(g5
S'\x92A\xe4='
p170
tp171
Rp172
ag1
(g5
S'\xa5\x91\xe4='
p173
tp174
Rp175
ag1
(g5
S'\xbe_\xde='
p176
tp177
Rp178
ag1
(g5
S'\xb9\x99\xe2='
p179
tp180
Rp181
ag1
(g5
S'P\x92\xe3='
p182
tp183
Rp184
ag1
(g5
S'i\xd0\xe5='
p185
tp186
Rp187
ag1
(g5
S'"?\xe1='
p188
tp189
Rp190
ag1
(g5
S'\xf0\x9d\xe8='
p191
tp192
Rp193
ag1
(g5
S'\xb3\xb6\xe0='
p194
tp195
Rp196
ag1
(g5
S'\xce\x8c\xdf='
p197
tp198
Rp199
ag1
(g5
S'\xe8\x9f\xd6='
p200
tp201
Rp202
ag1
(g5
S'_\x95\xdf='
p203
tp204
Rp205
ag1
(g5
S'\xe9\xa4\xe4='
p206
tp207
Rp208
ag1
(g5
S'\x8c\x9c\xe2='
p209
tp210
Rp211
ag1
(g5
S'.[\xda='
p212
tp213
Rp214
ag1
(g5
S'\x8c\xd3\xde='
p215
tp216
Rp217
ag1
(g5
S'\xe2\xdb\xe4='
p218
tp219
Rp220
ag1
(g5
S'\x00N\xd9='
p221
tp222
Rp223
ag1
(g5
S'\x82Z\xe0='
p224
tp225
Rp226
ag1
(g5
S"'\x9c\xe2="
p227
tp228
Rp229
ag1
(g5
S"'\x9f\xdb="
p230
tp231
Rp232
ag1
(g5
S'Lj\xdd='
p233
tp234
Rp235
ag1
(g5
S'\xcfY\xda='
p236
tp237
Rp238
ag1
(g5
S'!\x9a\xde='
p239
tp240
Rp241
ag1
(g5
S'h\x9e\xe0='
p242
tp243
Rp244
ag1
(g5
S'\x91\x84\xd6='
p245
tp246
Rp247
ag1
(g5
S'b\xc4\xda='
p248
tp249
Rp250
ag1
(g5
S'nr\xd8='
p251
tp252
Rp253
ag1
(g5
S'\xd57\xd7='
p254
tp255
Rp256
ag1
(g5
S'\xc4\xe9\xd3='
p257
tp258
Rp259
ag1
(g5
S'\xda\xf2\xd6='
p260
tp261
Rp262
ag1
(g5
S'\xe1^\xd7='
p263
tp264
Rp265
ag1
(g5
S'z\xfa\xd6='
p266
tp267
Rp268
ag1
(g5
S'\x1cJ\xd2='
p269
tp270
Rp271
ag1
(g5
S'\x814\xdf='
p272
tp273
Rp274
ag1
(g5
S'\xcc~\xe3='
p275
tp276
Rp277
ag1
(g5
S'\xd5\x04\xdc='
p278
tp279
Rp280
ag1
(g5
S'\xbf!\xda='
p281
tp282
Rp283
ag1
(g5
S'\xd3\xf2\xd8='
p284
tp285
Rp286
ag1
(g5
S'\x00\x9e\xd2='
p287
tp288
Rp289
ag1
(g5
S'\xb3R\xd7='
p290
tp291
Rp292
ag1
(g5
S'4\xf0\xd5='
p293
tp294
Rp295
ag1
(g5
S'\xbd\x07\xcd='
p296
tp297
Rp298
ag1
(g5
S'\xbc4\xda='
p299
tp300
Rp301
ag1
(g5
S'\xfa\xc2\xd1='
p302
tp303
Rp304
ag1
(g5
S'\xd2\x97\xd8='
p305
tp306
Rp307
a.