(lp0
cnumpy.core.multiarray
scalar
p1
(cnumpy
dtype
p2
(S'f4'
p3
I0
I1
tp4
Rp5
(I3
S'<'
p6
NNNI-1
I-1
I0
tp7
bS'\x98\xa9\x11<'
p8
tp9
Rp10
ag1
(g5
S'\x86\xd7\x8d<'
p11
tp12
Rp13
ag1
(g5
S'\xef~\xcd<'
p14
tp15
Rp16
ag1
(g5
S'%\x88\x02='
p17
tp18
Rp19
ag1
(g5
S'\xf9\xc9\x18='
p20
tp21
Rp22
ag1
(g5
S'\x83\x83)='
p23
tp24
Rp25
ag1
(g5
S'\xdb\x9f4='
p26
tp27
Rp28
ag1
(g5
S'l\x0f;='
p29
tp30
Rp31
ag1
(g5
S'L\xb2>='
p32
tp33
Rp34
ag1
(g5
S'8\xd7?='
p35
tp36
Rp37
ag1
(g5
S'\xa9\x98?='
p38
tp39
Rp40
ag1
(g5
S't\xbc>='
p41
tp42
Rp43
ag1
(g5
S'i\xc4=='
p44
tp45
Rp46
ag1
(g5
S'E\x9b<='
p47
tp48
Rp49
ag1
(g5
S'j\xe1<='
p50
tp51
Rp52
ag1
(g5
S'\x0f\x96=='
p53
tp54
Rp55
ag1
(g5
S'Mj=='
p56
tp57
Rp58
ag1
(g5
S'wD=='
p59
tp60
Rp61
ag1
(g5
S'\xb5\xaa<='
p62
tp63
Rp64
ag1
(g5
S'T\xef;='
p65
tp66
Rp67
ag1
(g5
S'\x94\x1a<='
p68
tp69
Rp70
ag1
(g5
S'\xb1u<='
p71
tp72
Rp73
ag1
(g5
S'\x98%<='
p74
tp75
Rp76
ag1
(g5
S'd@<='
p77
tp78
Rp79
ag1
(g5
S'\x9f0<='
p80
tp81
Rp82
ag1
(g5
S')\xb5;='
p83
tp84
Rp85
ag1
(g5
S'\x03~;='
p86
tp87
Rp88
ag1
(g5
S'\xbf\x96:='
p89
tp90
Rp91
ag1
(g5
S'^\x9f:='
p92
tp93
Rp94
ag1
(g5
S'~t;='
p95
tp96
Rp97
ag1
(g5
S'\x93\xe4:='
p98
tp99
Rp100
ag1
(g5
S'\xe7\xcd;='
p101
tp102
Rp103
ag1
(g5
S'1\xc0;='
p104
tp105
Rp106
ag1
(g5
S'\x87\x86:='
p107
tp108
Rp109
ag1
(g5
S'~3:='
p110
tp111
Rp112
ag1
(g5
S'\xe7\xf98='
p113
tp114
Rp115
ag1
(g5
S'L\x898='
p116
tp117
Rp118
ag1
(g5
S'q\xca8='
p119
tp120
Rp121
ag1
(g5
S'U\x12:='
p122
tp123
Rp124
ag1
(g5
S'\xea*:='
p125
tp126
Rp127
ag1
(g5
S'Ue:='
p128
tp129
Rp130
ag1
(g5
S'\xc509='
p131
tp132
Rp133
ag1
(g5
S'\x85v8='
p134
tp135
Rp136
ag1
(g5
S'\\Q8='
p137
tp138
Rp139
ag1
(g5
S'\xbc39='
p140
tp141
Rp142
ag1
(g5
S'\xcf\xb18='
p143
tp144
Rp145
ag1
(g5
S'\xf9\xfd6='
p146
tp147
Rp148
ag1
(g5
S'\xde\\6='
p149
tp150
Rp151
ag1
(g5
S'\xf4m7='
p152
tp153
Rp154
ag1
(g5
S'\xca\xf67='
p155
tp156
Rp157
ag1
(g5
S'\xb9\xca7='
p158
tp159
Rp160
ag1
(g5
S'M|6='
p161
tp162
Rp163
ag1
(g5
S'\x98\x057='
p164
tp165
Rp166
ag1
(g5
S'R\xe66='
p167
tp168
Rp169
ag1
(g5
S'\xe4\xe56='
p170
tp171
Rp172
ag1
(g5
S'\xfa\x176='
p173
tp174
Rp175
ag1
(g5
S'\xcb\xb16='
p176
tp177
Rp178
ag1
(g5
S'\x90\x816='
p179
tp180
Rp181
ag1
(g5
S'm\xe65='
p182
tp183
Rp184
ag1
(g5
S'ba6='
p185
tp186
Rp187
ag1
(g5
S'\x81\x925='
p188
tp189
Rp190
ag1
(g5
S',i5='
p191
tp192
Rp193
ag1
(g5
S'\xe6i4='
p194
tp195
Rp196
ag1
(g5
S'"\xe33='
p197
tp198
Rp199
ag1
(g5
S'i\x975='
p200
tp201
Rp202
ag1
(g5
S'\x95\x1e6='
p203
tp204
Rp205
ag1
(g5
S'\xe6\xe04='
p206
tp207
Rp208
ag1
(g5
S'\t\x9a4='
p209
tp210
Rp211
ag1
(g5
S'\xab\x9c4='
p212
tp213
Rp214
ag1
(g5
S'\xf2\xca3='
p215
tp216
Rp217
ag1
(g5
S'\xb0\x033='
p218
tp219
Rp220
ag1
(g5
S'd34='
p221
tp222
Rp223
ag1
(g5
S'\xe1;3='
p224
tp225
Rp226
ag1
(g5
S'\x1aC3='
p227
tp228
Rp229
ag1
(g5
S'\x12\xca3='
p230
tp231
Rp232
ag1
(g5
S'm\x7f3='
p233
tp234
Rp235
ag1
(g5
S'\x96[2='
p236
tp237
Rp238
ag1
(g5
S'\xc1$2='
p239
tp240
Rp241
ag1
(g5
S'\xb2,1='
p242
tp243
Rp244
ag1
(g5
S'\xafB1='
p245
tp246
Rp247
ag1
(g5
S'\xf1r1='
p248
tp249
Rp250
ag1
(g5
S'\xbfk1='
p251
tp252
Rp253
ag1
(g5
S'}\xc80='
p254
tp255
Rp256
ag1
(g5
S'\x85j1='
p257
tp258
Rp259
ag1
(g5
S'\x98\xe01='
p260
tp261
Rp262
ag1
(g5
S'\xe4\xdc0='
p263
tp264
Rp265
ag1
(g5
S'9\x9b/='
p266
tp267
Rp268
ag1
(g5
S'c^/='
p269
tp270
Rp271
ag1
(g5
S'@\x9b.='
p272
tp273
Rp274
ag1
(g5
S'\xd6\xed0='
p275
tp276
Rp277
ag1
(g5
S'\xd3\xf2/='
p278
tp279
Rp280
ag1
(g5
S'\xa0O.='
p281
tp282
Rp283
ag1
(g5
S"\xc8',="
p284
tp285
Rp286
ag1
(g5
S'w\x98-='
p287
tp288
Rp289
ag1
(g5
S'\x9a\xf3.='
p290
tp291
Rp292
ag1
(g5
S'K\x07/='
p293
tp294
Rp295
ag1
(g5
S'<\x94.='
p296
tp297
Rp298
ag1
(g5
S'\xf3\x08.='
p299
tp300
Rp301
ag1
(g5
S'\xc6\xc3+='
p302
tp303
Rp304
ag1
(g5
S'L&,='
p305
tp306
Rp307
a.