(lp0
cnumpy.core.multiarray
scalar
p1
(cnumpy
dtype
p2
(S'f4'
p3
I0
I1
tp4
Rp5
(I3
S'<'
p6
NNNI-1
I-1
I0
tp7
bS'\x97u\x12<'
p8
tp9
Rp10
ag1
(g5
S'cp\x8f<'
p11
tp12
Rp13
ag1
(g5
S'\x13,\xd0<'
p14
tp15
Rp16
ag1
(g5
S'\x1fn\x04='
p17
tp18
Rp19
ag1
(g5
S'\xea\x88\x1b='
p20
tp21
Rp22
ag1
(g5
S'\xdf\x7f-='
p23
tp24
Rp25
ag1
(g5
S'gT:='
p26
tp27
Rp28
ag1
(g5
S'\x97\xd5B='
p29
tp30
Rp31
ag1
(g5
S'\r\xe9H='
p32
tp33
Rp34
ag1
(g5
S'\x9e\xc9L='
p35
tp36
Rp37
ag1
(g5
S'\x08rO='
p38
tp39
Rp40
ag1
(g5
S'.\xa0Q='
p41
tp42
Rp43
ag1
(g5
S'}\xd5S='
p44
tp45
Rp46
ag1
(g5
S'\xde\x05V='
p47
tp48
Rp49
ag1
(g5
S'\xfa\x9fY='
p50
tp51
Rp52
ag1
(g5
S'l\xb7]='
p53
tp54
Rp55
ag1
(g5
S'\x8bCa='
p56
tp57
Rp58
ag1
(g5
S'G\xd6d='
p59
tp60
Rp61
ag1
(g5
S'_2h='
p62
tp63
Rp64
ag1
(g5
S'\xac~k='
p65
tp66
Rp67
ag1
(g5
S'q\xbbo='
p68
tp69
Rp70
ag1
(g5
S'\xb3Ut='
p71
tp72
Rp73
ag1
(g5
S'*7x='
p74
tp75
Rp76
ag1
(g5
S'\xff\xc0|='
p77
tp78
Rp79
ag1
(g5
S'\xa2\xa2\x80='
p80
tp81
Rp82
ag1
(g5
S'V\xb3\x82='
p83
tp84
Rp85
ag1
(g5
S'e\xe0\x84='
p86
tp87
Rp88
ag1
(g5
S'u\xde\x86='
p89
tp90
Rp91
ag1
(g5
S'\x94M\x89='
p92
tp93
Rp94
ag1
(g5
S'S\x03\x8c='
p95
tp96
Rp97
ag1
(g5
S'PV\x8e='
p98
tp99
Rp100
ag1
(g5
S'\xb9L\x91='
p101
tp102
Rp103
ag1
(g5
S'~\xe4\x93='
p104
tp105
Rp106
ag1
(g5
S"'\xfb\x95="
p107
tp108
Rp109
ag1
(g5
S'\xc0o\x98='
p110
tp111
Rp112
ag1
(g5
S'\xb9\xa8\x9a='
p113
tp114
Rp115
ag1
(g5
S'\x87/\x9d='
p116
tp117
Rp118
ag1
(g5
S'\xda\x1e\xa0='
p119
tp120
Rp121
ag1
(g5
S'\x87\x99\xa3='
p122
tp123
Rp124
ag1
(g5
S'\xf8z\xa6='
p125
tp126
Rp127
ag1
(g5
S'Ze\xa9='
p128
tp129
Rp130
ag1
(g5
S'\x9f\xd6\xab='
p131
tp132
Rp133
ag1
(g5
S'\xd8m\xae='
p134
tp135
Rp136
ag1
(g5
S'\xc4P\xb1='
p137
tp138
Rp139
ag1
(g5
S'T\xc9\xb4='
p140
tp141
Rp142
ag1
(g5
S'\xf6\xa7\xb7='
p143
tp144
Rp145
ag1
(g5
S'\x03\xf0\xb9='
p146
tp147
Rp148
ag1
(g5
S'\xe8\xe7\xbc='
p149
tp150
Rp151
ag1
(g5
S'#\x90\xc0='
p152
tp153
Rp154
ag1
(g5
S'\xfe!\xc4='
p155
tp156
Rp157
ag1
(g5
S'uI\xc7='
p158
tp159
Rp160
ag1
(g5
S'\xca\xf5\xc9='
p161
tp162
Rp163
ag1
(g5
S'+q\xcd='
p164
tp165
Rp166
ag1
(g5
S'\xa0\xec\xd0='
p167
tp168
Rp169
ag1
(g5
S'\x91f\xd4='
p170
tp171
Rp172
ag1
(g5
S'2^\xd7='
p173
tp174
Rp175
ag1
(g5
S'\xc6\xf6\xda='
p176
tp177
Rp178
ag1
(g5
S'\xf9A\xde='
p179
tp180
Rp181
ag1
(g5
S'Wi\xe1='
p182
tp183
Rp184
ag1
(g5
S' <\xe5='
p185
tp186
Rp187
ag1
(g5
S'\x12i\xe8='
p188
tp189
Rp190
ag1
(g5
S'\x05\xad\xeb='
p191
tp192
Rp193
ag1
(g5
S'_\xcf\xee='
p194
tp195
Rp196
ag1
(g5
S'\xe6)\xf2='
p197
tp198
Rp199
ag1
(g5
S'[\x95\xf6='
p200
tp201
Rp202
ag1
(g5
S'\xd3b\xfa='
p203
tp204
Rp205
ag1
(g5
S'\x1f~\xfd='
p206
tp207
Rp208
ag1
(g5
S'\x08\x83\x00>'
p209
tp210
Rp211
ag1
(g5
S'\x1by\x02>'
p212
tp213
Rp214
ag1
(g5
S'\x89\x16\x04>'
p215
tp216
Rp217
ag1
(g5
S'\xab\xc7\x05>'
p218
tp219
Rp220
ag1
(g5
S'\xbf\xf8\x07>'
p221
tp222
Rp223
ag1
(g5
S'\xc2\x9d\t>'
p224
tp225
Rp226
ag1
(g5
S'\xeb\x91\x0b>'
p227
tp228
Rp229
ag1
(g5
S'\xfb\x8d\r>'
p230
tp231
Rp232
ag1
(g5
S'9u\x0f>'
p233
tp234
Rp235
ag1
(g5
S'\xb8(\x11>'
p236
tp237
Rp238
ag1
(g5
S'\xde\x0c\x13>'
p239
tp240
Rp241
ag1
(g5
S'\xd2\xd4\x14>'
p242
tp243
Rp244
ag1
(g5
S',\xed\x16>'
p245
tp246
Rp247
ag1
(g5
S'\xcc\xfe\x18>'
p248
tp249
Rp250
ag1
(g5
S'(\x13\x1b>'
p251
tp252
Rp253
ag1
(g5
S'p\x03\x1d>'
p254
tp255
Rp256
ag1
(g5
S'\xca#\x1f>'
p257
tp258
Rp259
ag1
(g5
S'\xe4H!>'
p260
tp261
Rp262
ag1
(g5
S'\x1f\x08#>'
p263
tp264
Rp265
ag1
(g5
S'\xea\xd5$>'
p266
tp267
Rp268
ag1
(g5
S'\x01\xf2&>'
p269
tp270
Rp271
ag1
(g5
S'\xb3\xc6(>'
p272
tp273
Rp274
ag1
(g5
S'\x7fl+>'
p275
tp276
Rp277
ag1
(g5
S"'R->"
p278
tp279
Rp280
ag1
(g5
S'\x17 />'
p281
tp282
Rp283
ag1
(g5
S'\xd3\xb30>'
p284
tp285
Rp286
ag1
(g5
S'^53>'
p287
tp288
Rp289
ag1
(g5
S'\x97\xba5>'
p290
tp291
Rp292
ag1
(g5
S'\xb3\xee7>'
p293
tp294
Rp295
ag1
(g5
S'r\xfc9>'
p296
tp297
Rp298
ag1
(g5
S'\xb2\xf0;>'
p299
tp300
Rp301
ag1
(g5
S'\x93\x89=>'
p302
tp303
Rp304
ag1
(g5
S'\xb8\xd4?>'
p305
tp306
Rp307
a.